; Function Attrs: nounwind uwtable
define internal i32 @bio_core_read_ex(ptr noundef %0, ptr noundef %1, i64 noundef %2, ptr noundef %3) #0 {
  %5 = load ptr, ptr %0, align 8, !tbaa !20
  %6 = tail call ptr @ossl_lib_ctx_get_data(ptr noundef %5, i32 noundef 17) #3
  %7 = icmp eq ptr %6, null
  br i1 %7, label %14, label %8

8:                                                ; preds = %4
  %9 = load ptr, ptr %6, align 8, !tbaa !8
  %10 = icmp eq ptr %9, null
  br i1 %10, label %14, label %11

11:                                               ; preds = %8
  %12 = tail call ptr @BIO_get_data(ptr noundef nonnull %0) #3
  %13 = tail call i32 %9(ptr noundef %12, ptr noundef %1, i64 noundef %2, ptr noundef %3) #3
  br label %14

14:                                               ; preds = %4, %8, %11
  %.0 = phi i32 [ %13, %11 ], [ 0, %8 ], [ 0, %4 ]
  ret i32 %.0
}